target datalayout = "e-m:e-p270:32:32-p271:32:32-p272:64:64-i64:64-i128:128-f80:128-n8:16:32:64-S128"
target triple = "x86_64-pc-linux-gnu"

%struct.strbuf = type { i64, i64, ptr }
%struct.strvec = type { ptr, i64, i64 }
%struct.pathspec = type { i32, i8, i32, i32, ptr }
%struct.string_list = type { ptr, i64, i64, i8, ptr }
%struct.rev_info = type { ptr, %struct.object_array, ptr, %struct.object_array, %struct.rev_cmdline_info, %struct.list_objects_filter_options, %struct.ref_exclusions, ptr, ptr, ptr, %struct.pathspec, i32, i32, i32, i32, i64, i32, i32, %struct.date_mode, i32, i32, i32, i32, ptr, i32, i32, ptr, ptr, i32, ptr, ptr, %struct.ident_split, ptr, i32, ptr, ptr, ptr, i32, i32, i32, ptr, %struct.grep_opt, ptr, i32, i32, i64, i64, i64, i32, i32, ptr, ptr, ptr, %struct.diff_options, %struct.diff_options, ptr, %struct.decoration, %struct.decoration, %struct.decoration, %struct.display_notes_opt, ptr, ptr, ptr, ptr, ptr, i32, ptr, i32, i32, i32, %struct.decoration, ptr, ptr, ptr, ptr, ptr, ptr, ptr, i32, ptr, i32, ptr, %struct.oidset }
%struct.object_array = type { i32, i32, ptr }
%struct.rev_cmdline_info = type { i32, i32, ptr }
%struct.list_objects_filter_options = type { %struct.strbuf, i32, i8, ptr, i64, i64, i32, i64, i64, ptr }
%struct.ref_exclusions = type { %struct.string_list, %struct.strvec, i8 }
%struct.date_mode = type { i32, i32, ptr }
%struct.ident_split = type { ptr, ptr, ptr, ptr, ptr, ptr, ptr, ptr }
%struct.grep_opt = type { ptr, ptr, ptr, ptr, ptr, ptr, i32, i32, i32, i32, i32, i32, i32, i32, i32, i32, i32, i32, i32, i32, i32, i32, i32, i32, i32, i32, i32, i32, i32, i32, i32, i32, [9 x [75 x i8]], i32, i32, i32, i32, i32, i32, i32, ptr, ptr, ptr }
%struct.diff_options = type { ptr, ptr, i32, i32, ptr, i32, ptr, i64, i64, ptr, ptr, ptr, ptr, %struct.diff_flags, i32, i32, i32, i32, i32, i32, i32, i32, i32, i32, i32, i32, i32, i32, i32, i32, i32, i32, i32, i32, i32, i32, ptr, i32, ptr, i32, i32, ptr, i64, i64, i32, i32, i32, i32, ptr, i32, i32, ptr, i32, i32, ptr, ptr, i32, [3 x i8], %struct.pathspec, ptr, ptr, ptr, ptr, ptr, ptr, ptr, ptr, i32, ptr, i32, i32, ptr, ptr, i32 }
%struct.diff_flags = type { i32, i32, i32, i32, i32, i32, i32, i32, i32, i32, i32, i32, i32, i32, i32, i32, i32, i32, i32, i32, i32, i32, i32, i32, i32, i32, i32, i32, i32, i32, i32, i32, i32, i32, i32 }
%struct.display_notes_opt = type { i32, %struct.string_list }
%struct.decoration = type { ptr, i32, i32, ptr }
%struct.oidset = type { %struct.kh_oid_set }
%struct.kh_oid_set = type { i32, i32, i32, i32, ptr, ptr, ptr }

; Function Attrs: nounwind uwtable
define dso_local i32 @has_unstaged_changes(ptr noundef %0, i32 noundef %1) #0 {
  %3 = alloca ptr, align 8
  %4 = alloca i32, align 4
  %5 = alloca %struct.rev_info, align 8
  %6 = alloca i32, align 4
  store ptr %0, ptr %3, align 8, !tbaa !33
  store i32 %1, ptr %4, align 4, !tbaa !11
  call void @llvm.lifetime.start.p0(i64 3008, ptr %5) #12
  call void @llvm.lifetime.start.p0(i64 4, ptr %6) #12
  %7 = load ptr, ptr %3, align 8, !tbaa !33
  call void @repo_init_revisions(ptr noundef %7, ptr noundef %5, ptr noundef null)
  %8 = load i32, ptr %4, align 4, !tbaa !11
  %9 = icmp ne i32 %8, 0
  br i1 %9, label %10, label %17

10:                                               ; preds = %2
  %11 = getelementptr inbounds nuw %struct.rev_info, ptr %5, i32 0, i32 53
  %12 = getelementptr inbounds nuw %struct.diff_options, ptr %11, i32 0, i32 13
  %13 = getelementptr inbounds nuw %struct.diff_flags, ptr %12, i32 0, i32 17
  store i32 1, ptr %13, align 4, !tbaa !237
  %14 = getelementptr inbounds nuw %struct.rev_info, ptr %5, i32 0, i32 53
  %15 = getelementptr inbounds nuw %struct.diff_options, ptr %14, i32 0, i32 13
  %16 = getelementptr inbounds nuw %struct.diff_flags, ptr %15, i32 0, i32 27
  store i32 1, ptr %16, align 4, !tbaa !96
  br label %17

17:                                               ; preds = %10, %2
  %18 = getelementptr inbounds nuw %struct.rev_info, ptr %5, i32 0, i32 53
  %19 = getelementptr inbounds nuw %struct.diff_options, ptr %18, i32 0, i32 13
  %20 = getelementptr inbounds nuw %struct.diff_flags, ptr %19, i32 0, i32 10
  store i32 1, ptr %20, align 8, !tbaa !238
  %21 = getelementptr inbounds nuw %struct.rev_info, ptr %5, i32 0, i32 53
  call void @diff_setup_done(ptr noundef %21)
  call void @run_diff_files(ptr noundef %5, i32 noundef 0)
  %22 = call i32 @diff_result_code(ptr noundef %5)
  store i32 %22, ptr %6, align 4, !tbaa !11
  call void @release_revisions(ptr noundef %5)
  %23 = load i32, ptr %6, align 4, !tbaa !11
  call void @llvm.lifetime.end.p0(i64 4, ptr %6) #12
  call void @llvm.lifetime.end.p0(i64 3008, ptr %5) #12
  ret i32 %23
}