; Function Attrs: nounwind uwtable
define dso_local i32 @has_unstaged_changes(ptr noundef %0, i32 noundef %1) local_unnamed_addr #0 {
  %3 = alloca %struct.rev_info, align 8
  call void @llvm.lifetime.start.p0(i64 3008, ptr nonnull %3) #20
  call void @repo_init_revisions(ptr noundef %0, ptr noundef nonnull %3, ptr noundef null) #20
  %.not = icmp eq i32 %1, 0
  br i1 %.not, label %7, label %4

4:                                                ; preds = %2
  %5 = getelementptr inbounds nuw i8, ptr %3, i64 1636
  store i32 1, ptr %5, align 4, !tbaa !242
  %6 = getelementptr inbounds nuw i8, ptr %3, i64 1676
  store i32 1, ptr %6, align 4, !tbaa !89
  br label %7

7:                                                ; preds = %4, %2
  %8 = getelementptr inbounds nuw i8, ptr %3, i64 1472
  %9 = getelementptr inbounds nuw i8, ptr %3, i64 1608
  store i32 1, ptr %9, align 8, !tbaa !243
  call void @diff_setup_done(ptr noundef nonnull %8) #20
  call void @run_diff_files(ptr noundef nonnull %3, i32 noundef 0) #20
  %10 = call i32 @diff_result_code(ptr noundef nonnull %3) #20
  call void @release_revisions(ptr noundef nonnull %3) #20
  call void @llvm.lifetime.end.p0(i64 3008, ptr nonnull %3) #20
  ret i32 %10
}